; ModuleID = '56/1973.c'
source_filename = "56/1973.c"
target datalayout = "e-m:e-p270:32:32-p271:32:32-p272:64:64-i64:64-f80:128-n8:16:32:64-S128"
target triple = "x86_64-pc-linux-gnu"

@.str = private unnamed_addr constant [4 x i8] c"%d\0A\00", align 1
@.str.1 = private unnamed_addr constant [11 x i8] c"%d%d%d%d%d\00", align 1
@.str.2 = private unnamed_addr constant [9 x i8] c"%d%d%d%d\00", align 1
@.str.3 = private unnamed_addr constant [7 x i8] c"%d%d%d\00", align 1
@.str.4 = private unnamed_addr constant [5 x i8] c"%d%d\00", align 1
@.str.5 = private unnamed_addr constant [3 x i8] c"%d\00", align 1

; Function Attrs: noinline nounwind uwtable
define dso_local void @main() #0 {
  %1 = alloca i32, align 4
  %2 = alloca i32, align 4
  %3 = alloca i32, align 4
  %4 = alloca i32, align 4
  %5 = alloca i32, align 4
  %6 = alloca i32, align 4
  %7 = call i32 (i8*, ...) @__isoc99_scanf(i8* getelementptr inbounds ([4 x i8], [4 x i8]* @.str, i64 0, i64 0), i32* %1)
  %8 = load i32, i32* %1, align 4
  %9 = sdiv i32 %8, 10000
  store i32 %9, i32* %2, align 4
  %10 = load i32, i32* %1, align 4
  %11 = load i32, i32* %2, align 4
  %12 = mul nsw i32 10000, %11
  %13 = sub nsw i32 %10, %12
  %14 = sdiv i32 %13, 1000
  store i32 %14, i32* %3, align 4
  %15 = load i32, i32* %1, align 4
  %16 = load i32, i32* %2, align 4
  %17 = mul nsw i32 10000, %16
  %18 = sub nsw i32 %15, %17
  %19 = load i32, i32* %3, align 4
  %20 = mul nsw i32 1000, %19
  %21 = sub nsw i32 %18, %20
  %22 = sdiv i32 %21, 100
  store i32 %22, i32* %4, align 4
  %23 = load i32, i32* %1, align 4
  %24 = load i32, i32* %2, align 4
  %25 = mul nsw i32 10000, %24
  %26 = sub nsw i32 %23, %25
  %27 = load i32, i32* %3, align 4
  %28 = mul nsw i32 1000, %27
  %29 = sub nsw i32 %26, %28
  %30 = load i32, i32* %4, align 4
  %31 = mul nsw i32 100, %30
  %32 = sub nsw i32 %29, %31
  %33 = sdiv i32 %32, 10
  store i32 %33, i32* %5, align 4
  %34 = load i32, i32* %1, align 4
  %35 = load i32, i32* %2, align 4
  %36 = mul nsw i32 10000, %35
  %37 = sub nsw i32 %34, %36
  %38 = load i32, i32* %3, align 4
  %39 = mul nsw i32 1000, %38
  %40 = sub nsw i32 %37, %39
  %41 = load i32, i32* %4, align 4
  %42 = mul nsw i32 100, %41
  %43 = sub nsw i32 %40, %42
  %44 = load i32, i32* %5, align 4
  %45 = mul nsw i32 10, %44
  %46 = sub nsw i32 %43, %45
  store i32 %46, i32* %6, align 4
  %47 = load i32, i32* %2, align 4
  %48 = icmp ne i32 %47, 0
  br i1 %48, label %49, label %68

49:                                               ; preds = %0
  %50 = load i32, i32* %3, align 4
  %51 = icmp ne i32 %50, 0
  br i1 %51, label %52, label %68

52:                                               ; preds = %49
  %53 = load i32, i32* %4, align 4
  %54 = icmp ne i32 %53, 0
  br i1 %54, label %55, label %68

55:                                               ; preds = %52
  %56 = load i32, i32* %5, align 4
  %57 = icmp ne i32 %56, 0
  br i1 %57, label %58, label %68

58:                                               ; preds = %55
  %59 = load i32, i32* %6, align 4
  %60 = icmp ne i32 %59, 0
  br i1 %60, label %61, label %68

61:                                               ; preds = %58
  %62 = load i32, i32* %6, align 4
  %63 = load i32, i32* %5, align 4
  %64 = load i32, i32* %4, align 4
  %65 = load i32, i32* %3, align 4
  %66 = load i32, i32* %2, align 4
  %67 = call i32 (i8*, ...) @printf(i8* getelementptr inbounds ([11 x i8], [11 x i8]* @.str.1, i64 0, i64 0), i32 %62, i32 %63, i32 %64, i32 %65, i32 %66)
  br label %150

68:                                               ; preds = %58, %55, %52, %49, %0
  %69 = load i32, i32* %2, align 4
  %70 = icmp eq i32 %69, 0
  br i1 %70, label %71, label %89

71:                                               ; preds = %68
  %72 = load i32, i32* %3, align 4
  %73 = icmp ne i32 %72, 0
  br i1 %73, label %74, label %89

74:                                               ; preds = %71
  %75 = load i32, i32* %4, align 4
  %76 = icmp ne i32 %75, 0
  br i1 %76, label %77, label %89

77:                                               ; preds = %74
  %78 = load i32, i32* %5, align 4
  %79 = icmp ne i32 %78, 0
  br i1 %79, label %80, label %89

80:                                               ; preds = %77
  %81 = load i32, i32* %6, align 4
  %82 = icmp ne i32 %81, 0
  br i1 %82, label %83, label %89

83:                                               ; preds = %80
  %84 = load i32, i32* %6, align 4
  %85 = load i32, i32* %5, align 4
  %86 = load i32, i32* %4, align 4
  %87 = load i32, i32* %3, align 4
  %88 = call i32 (i8*, ...) @printf(i8* getelementptr inbounds ([9 x i8], [9 x i8]* @.str.2, i64 0, i64 0), i32 %84, i32 %85, i32 %86, i32 %87)
  br label %149

89:                                               ; preds = %80, %77, %74, %71, %68
  %90 = load i32, i32* %2, align 4
  %91 = icmp eq i32 %90, 0
  br i1 %91, label %92, label %109

92:                                               ; preds = %89
  %93 = load i32, i32* %3, align 4
  %94 = icmp eq i32 %93, 0
  br i1 %94, label %95, label %109

95:                                               ; preds = %92
  %96 = load i32, i32* %4, align 4
  %97 = icmp ne i32 %96, 0
  br i1 %97, label %98, label %109

98:                                               ; preds = %95
  %99 = load i32, i32* %5, align 4
  %100 = icmp ne i32 %99, 0
  br i1 %100, label %101, label %109

101:                                              ; preds = %98
  %102 = load i32, i32* %6, align 4
  %103 = icmp ne i32 %102, 0
  br i1 %103, label %104, label %109

104:                                              ; preds = %101
  %105 = load i32, i32* %6, align 4
  %106 = load i32, i32* %5, align 4
  %107 = load i32, i32* %4, align 4
  %108 = call i32 (i8*, ...) @printf(i8* getelementptr inbounds ([7 x i8], [7 x i8]* @.str.3, i64 0, i64 0), i32 %105, i32 %106, i32 %107)
  br label %148

109:                                              ; preds = %101, %98, %95, %92, %89
  %110 = load i32, i32* %2, align 4
  %111 = icmp eq i32 %110, 0
  br i1 %111, label %112, label %128

112:                                              ; preds = %109
  %113 = load i32, i32* %3, align 4
  %114 = icmp eq i32 %113, 0
  br i1 %114, label %115, label %128

115:                                              ; preds = %112
  %116 = load i32, i32* %4, align 4
  %117 = icmp eq i32 %116, 0
  br i1 %117, label %118, label %128

118:                                              ; preds = %115
  %119 = load i32, i32* %5, align 4
  %120 = icmp ne i32 %119, 0
  br i1 %120, label %121, label %128

121:                                              ; preds = %118
  %122 = load i32, i32* %6, align 4
  %123 = icmp ne i32 %122, 0
  br i1 %123, label %124, label %128

124:                                              ; preds = %121
  %125 = load i32, i32* %6, align 4
  %126 = load i32, i32* %5, align 4
  %127 = call i32 (i8*, ...) @printf(i8* getelementptr inbounds ([5 x i8], [5 x i8]* @.str.4, i64 0, i64 0), i32 %125, i32 %126)
  br label %147

128:                                              ; preds = %121, %118, %115, %112, %109
  %129 = load i32, i32* %2, align 4
  %130 = icmp eq i32 %129, 0
  br i1 %130, label %131, label %146

131:                                              ; preds = %128
  %132 = load i32, i32* %3, align 4
  %133 = icmp eq i32 %132, 0
  br i1 %133, label %134, label %146

134:                                              ; preds = %131
  %135 = load i32, i32* %4, align 4
  %136 = icmp eq i32 %135, 0
  br i1 %136, label %137, label %146

137:                                              ; preds = %134
  %138 = load i32, i32* %5, align 4
  %139 = icmp eq i32 %138, 0
  br i1 %139, label %140, label %146

140:                                              ; preds = %137
  %141 = load i32, i32* %6, align 4
  %142 = icmp ne i32 %141, 0
  br i1 %142, label %143, label %146

143:                                              ; preds = %140
  %144 = load i32, i32* %6, align 4
  %145 = call i32 (i8*, ...) @printf(i8* getelementptr inbounds ([3 x i8], [3 x i8]* @.str.5, i64 0, i64 0), i32 %144)
  br label %146

146:                                              ; preds = %143, %140, %137, %134, %131, %128
  br label %147

147:                                              ; preds = %146, %124
  br label %148

148:                                              ; preds = %147, %104
  br label %149

149:                                              ; preds = %148, %83
  br label %150

150:                                              ; preds = %149, %61
  ret void
}

declare dso_local i32 @__isoc99_scanf(i8*, ...) #1

declare dso_local i32 @printf(i8*, ...) #1


!llvm.module.flags = !{!0}
!llvm.ident = !{!1}

!0 = !{i32 1, !"wchar_size", i32 4}
!1 = !{!"clang version 10.0.0-4ubuntu1 "}
